; ModuleID = '55/1674.c'
source_filename = "55/1674.c"
target datalayout = "e-m:e-p270:32:32-p271:32:32-p272:64:64-i64:64-f80:128-n8:16:32:64-S128"
target triple = "x86_64-pc-linux-gnu"

@.str = private unnamed_addr constant [4 x i8] c"%d \00", align 1
@.str.1 = private unnamed_addr constant [3 x i8] c"%s\00", align 1
@.str.2 = private unnamed_addr constant [3 x i8] c"%d\00", align 1
@.str.3 = private unnamed_addr constant [2 x i8] c"0\00", align 1
@.str.4 = private unnamed_addr constant [3 x i8] c"%c\00", align 1

; Function Attrs: noinline nounwind uwtable
define dso_local i32 @main() #0 {
  %1 = alloca i32, align 4
  %2 = alloca [100000 x i8], align 16
  %3 = alloca [100000 x i8], align 16
  %4 = alloca i32, align 4
  %5 = alloca i32, align 4
  %6 = alloca i32, align 4
  %7 = alloca i32, align 4
  store i32 0, i32* %1, align 4
  %8 = bitcast [100000 x i8]* %2 to i8*
  call void @llvm.memset.p0i8.i64(i8* align 16 %8, i8 0, i64 100000, i1 false)
  %9 = bitcast [100000 x i8]* %3 to i8*
  call void @llvm.memset.p0i8.i64(i8* align 16 %9, i8 0, i64 100000, i1 false)
  store i32 0, i32* %5, align 4
  %10 = call i32 (i8*, ...) @__isoc99_scanf(i8* getelementptr inbounds ([4 x i8], [4 x i8]* @.str, i64 0, i64 0), i32* %6)
  %11 = getelementptr inbounds [100000 x i8], [100000 x i8]* %2, i64 0, i64 0
  %12 = call i32 (i8*, ...) @__isoc99_scanf(i8* getelementptr inbounds ([3 x i8], [3 x i8]* @.str.1, i64 0, i64 0), i8* %11)
  %13 = call i32 (i8*, ...) @__isoc99_scanf(i8* getelementptr inbounds ([3 x i8], [3 x i8]* @.str.2, i64 0, i64 0), i32* %7)
  store i32 0, i32* %4, align 4
  br label %14

14:                                               ; preds = %43, %0
  %15 = load i32, i32* %4, align 4
  %16 = sext i32 %15 to i64
  %17 = getelementptr inbounds [100000 x i8], [100000 x i8]* %2, i64 0, i64 0
  %18 = call i64 @strlen(i8* %17) #4
  %19 = icmp ult i64 %16, %18
  br i1 %19, label %20, label %46

20:                                               ; preds = %14
  %21 = load i32, i32* %4, align 4
  %22 = sext i32 %21 to i64
  %23 = getelementptr inbounds [100000 x i8], [100000 x i8]* %2, i64 0, i64 %22
  %24 = load i8, i8* %23, align 1
  %25 = sext i8 %24 to i32
  %26 = icmp sge i32 %25, 97
  br i1 %26, label %27, label %42

27:                                               ; preds = %20
  %28 = load i32, i32* %4, align 4
  %29 = sext i32 %28 to i64
  %30 = getelementptr inbounds [100000 x i8], [100000 x i8]* %2, i64 0, i64 %29
  %31 = load i8, i8* %30, align 1
  %32 = sext i8 %31 to i32
  %33 = icmp sle i32 %32, 122
  br i1 %33, label %34, label %42

34:                                               ; preds = %27
  %35 = load i32, i32* %4, align 4
  %36 = sext i32 %35 to i64
  %37 = getelementptr inbounds [100000 x i8], [100000 x i8]* %2, i64 0, i64 %36
  %38 = load i8, i8* %37, align 1
  %39 = sext i8 %38 to i32
  %40 = sub nsw i32 %39, 32
  %41 = trunc i32 %40 to i8
  store i8 %41, i8* %37, align 1
  br label %42

42:                                               ; preds = %34, %27, %20
  br label %43

43:                                               ; preds = %42
  %44 = load i32, i32* %4, align 4
  %45 = add nsw i32 %44, 1
  store i32 %45, i32* %4, align 4
  br label %14

46:                                               ; preds = %14
  store i32 0, i32* %4, align 4
  br label %47

47:                                               ; preds = %90, %46
  %48 = load i32, i32* %4, align 4
  %49 = sext i32 %48 to i64
  %50 = getelementptr inbounds [100000 x i8], [100000 x i8]* %2, i64 0, i64 0
  %51 = call i64 @strlen(i8* %50) #4
  %52 = icmp ult i64 %49, %51
  br i1 %52, label %53, label %93

53:                                               ; preds = %47
  %54 = load i32, i32* %4, align 4
  %55 = sext i32 %54 to i64
  %56 = getelementptr inbounds [100000 x i8], [100000 x i8]* %2, i64 0, i64 %55
  %57 = load i8, i8* %56, align 1
  %58 = sext i8 %57 to i32
  %59 = icmp sge i32 %58, 65
  br i1 %59, label %60, label %78

60:                                               ; preds = %53
  %61 = load i32, i32* %4, align 4
  %62 = sext i32 %61 to i64
  %63 = getelementptr inbounds [100000 x i8], [100000 x i8]* %2, i64 0, i64 %62
  %64 = load i8, i8* %63, align 1
  %65 = sext i8 %64 to i32
  %66 = icmp sle i32 %65, 90
  br i1 %66, label %67, label %78

67:                                               ; preds = %60
  %68 = load i32, i32* %6, align 4
  %69 = load i32, i32* %5, align 4
  %70 = mul nsw i32 %68, %69
  %71 = load i32, i32* %4, align 4
  %72 = sext i32 %71 to i64
  %73 = getelementptr inbounds [100000 x i8], [100000 x i8]* %2, i64 0, i64 %72
  %74 = load i8, i8* %73, align 1
  %75 = sext i8 %74 to i32
  %76 = sub nsw i32 %75, 55
  %77 = add nsw i32 %70, %76
  store i32 %77, i32* %5, align 4
  br label %89

78:                                               ; preds = %60, %53
  %79 = load i32, i32* %6, align 4
  %80 = load i32, i32* %5, align 4
  %81 = mul nsw i32 %79, %80
  %82 = load i32, i32* %4, align 4
  %83 = sext i32 %82 to i64
  %84 = getelementptr inbounds [100000 x i8], [100000 x i8]* %2, i64 0, i64 %83
  %85 = load i8, i8* %84, align 1
  %86 = sext i8 %85 to i32
  %87 = sub nsw i32 %86, 48
  %88 = add nsw i32 %81, %87
  store i32 %88, i32* %5, align 4
  br label %89

89:                                               ; preds = %78, %67
  br label %90

90:                                               ; preds = %89
  %91 = load i32, i32* %4, align 4
  %92 = add nsw i32 %91, 1
  store i32 %92, i32* %4, align 4
  br label %47

93:                                               ; preds = %47
  %94 = load i32, i32* %5, align 4
  %95 = icmp eq i32 %94, 0
  br i1 %95, label %96, label %98

96:                                               ; preds = %93
  %97 = call i32 (i8*, ...) @printf(i8* getelementptr inbounds ([2 x i8], [2 x i8]* @.str.3, i64 0, i64 0))
  br label %133

98:                                               ; preds = %93
  store i32 0, i32* %4, align 4
  br label %99

99:                                               ; preds = %129, %98
  %100 = load i32, i32* %5, align 4
  %101 = icmp sgt i32 %100, 0
  br i1 %101, label %102, label %132

102:                                              ; preds = %99
  %103 = load i32, i32* %5, align 4
  %104 = load i32, i32* %7, align 4
  %105 = srem i32 %103, %104
  %106 = icmp slt i32 %105, 10
  br i1 %106, label %107, label %116

107:                                              ; preds = %102
  %108 = load i32, i32* %5, align 4
  %109 = load i32, i32* %7, align 4
  %110 = srem i32 %108, %109
  %111 = add nsw i32 %110, 48
  %112 = trunc i32 %111 to i8
  %113 = load i32, i32* %4, align 4
  %114 = sext i32 %113 to i64
  %115 = getelementptr inbounds [100000 x i8], [100000 x i8]* %3, i64 0, i64 %114
  store i8 %112, i8* %115, align 1
  br label %125

116:                                              ; preds = %102
  %117 = load i32, i32* %5, align 4
  %118 = load i32, i32* %7, align 4
  %119 = srem i32 %117, %118
  %120 = add nsw i32 %119, 55
  %121 = trunc i32 %120 to i8
  %122 = load i32, i32* %4, align 4
  %123 = sext i32 %122 to i64
  %124 = getelementptr inbounds [100000 x i8], [100000 x i8]* %3, i64 0, i64 %123
  store i8 %121, i8* %124, align 1
  br label %125

125:                                              ; preds = %116, %107
  %126 = load i32, i32* %5, align 4
  %127 = load i32, i32* %7, align 4
  %128 = sdiv i32 %126, %127
  store i32 %128, i32* %5, align 4
  br label %129

129:                                              ; preds = %125
  %130 = load i32, i32* %4, align 4
  %131 = add nsw i32 %130, 1
  store i32 %131, i32* %4, align 4
  br label %99

132:                                              ; preds = %99
  br label %133

133:                                              ; preds = %132, %96
  %134 = getelementptr inbounds [100000 x i8], [100000 x i8]* %3, i64 0, i64 0
  %135 = call i64 @strlen(i8* %134) #4
  %136 = sub i64 %135, 1
  %137 = trunc i64 %136 to i32
  store i32 %137, i32* %4, align 4
  br label %138

138:                                              ; preds = %148, %133
  %139 = load i32, i32* %4, align 4
  %140 = icmp sge i32 %139, 0
  br i1 %140, label %141, label %151

141:                                              ; preds = %138
  %142 = load i32, i32* %4, align 4
  %143 = sext i32 %142 to i64
  %144 = getelementptr inbounds [100000 x i8], [100000 x i8]* %3, i64 0, i64 %143
  %145 = load i8, i8* %144, align 1
  %146 = sext i8 %145 to i32
  %147 = call i32 (i8*, ...) @printf(i8* getelementptr inbounds ([3 x i8], [3 x i8]* @.str.4, i64 0, i64 0), i32 %146)
  br label %148

148:                                              ; preds = %141
  %149 = load i32, i32* %4, align 4
  %150 = add nsw i32 %149, -1
  store i32 %150, i32* %4, align 4
  br label %138

151:                                              ; preds = %138
  ret i32 0
}

; Function Attrs: argmemonly nounwind willreturn
declare void @llvm.memset.p0i8.i64(i8* nocapture writeonly, i8, i64, i1 immarg) #1

declare dso_local i32 @__isoc99_scanf(i8*, ...) #2

; Function Attrs: nounwind readonly
declare dso_local i64 @strlen(i8*) #3

declare dso_local i32 @printf(i8*, ...) #2


!llvm.module.flags = !{!0}
!llvm.ident = !{!1}

!0 = !{i32 1, !"wchar_size", i32 4}
!1 = !{!"clang version 10.0.0-4ubuntu1 "}
